target datalayout = "e-m:e-p270:32:32-p271:32:32-p272:64:64-i64:64-i128:128-f80:128-n8:16:32:64-S128"
target triple = "x86_64-pc-linux-gnu"

%struct.mi_heap_s = type { ptr, [129 x ptr], [75 x %struct.mi_page_queue_s], ptr, i64, i64, [2 x i64], %struct.mi_random_cxt_s, i64, i64, i64, ptr, i8 }
%struct.mi_page_queue_s = type { ptr, ptr, i64 }
%struct.mi_random_cxt_s = type { [16 x i32], [16 x i32], i32 }
%struct.mi_tld_s = type { i64, i8, ptr, ptr, %struct.mi_segments_tld_s, %struct.mi_os_tld_s, %struct.mi_stats_s }
%struct.mi_segments_tld_s = type { [36 x %struct.mi_span_queue_s], i64, i64, i64, i64, ptr, ptr }
%struct.mi_span_queue_s = type { ptr, ptr, i64 }
%struct.mi_os_tld_s = type { i64, ptr }
%struct.mi_stats_s = type { %struct.mi_stat_count_s, %struct.mi_stat_count_s, %struct.mi_stat_count_s, %struct.mi_stat_count_s, %struct.mi_stat_count_s, %struct.mi_stat_count_s, %struct.mi_stat_count_s, %struct.mi_stat_count_s, %struct.mi_stat_count_s, %struct.mi_stat_count_s, %struct.mi_stat_count_s, %struct.mi_stat_count_s, %struct.mi_stat_count_s, %struct.mi_stat_count_s, %struct.mi_stat_counter_s, %struct.mi_stat_counter_s, %struct.mi_stat_counter_s, %struct.mi_stat_counter_s, %struct.mi_stat_counter_s, %struct.mi_stat_counter_s, %struct.mi_stat_counter_s, %struct.mi_stat_counter_s }
%struct.mi_stat_count_s = type { i64, i64, i64, i64 }
%struct.mi_stat_counter_s = type { i64, i64 }
%struct.mi_page_s = type { i32, i32, i8, i16, i16, %union.mi_page_flags_s, i8, ptr, i32, i32, ptr, i64, i64, ptr, ptr, [1 x i64] }
%union.mi_page_flags_s = type { i8 }

@_mi_heap_empty = external constant %struct.mi_heap_s, align 8

; Function Attrs: nounwind uwtable
define internal zeroext i1 @mi_heap_visit_pages(ptr noundef %0, ptr noundef %1, ptr noundef %2, ptr noundef %3) #0 {
  %5 = alloca i1, align 1
  %6 = alloca ptr, align 8
  %7 = alloca ptr, align 8
  %8 = alloca ptr, align 8
  %9 = alloca ptr, align 8
  %10 = alloca i64, align 8
  %11 = alloca i64, align 8
  %12 = alloca i32, align 4
  %13 = alloca ptr, align 8
  %14 = alloca ptr, align 8
  %15 = alloca ptr, align 8
  store ptr %0, ptr %6, align 8, !tbaa !3
  store ptr %1, ptr %7, align 8, !tbaa !35
  store ptr %2, ptr %8, align 8, !tbaa !35
  store ptr %3, ptr %9, align 8, !tbaa !35
  %16 = load ptr, ptr %6, align 8, !tbaa !3
  %17 = icmp eq ptr %16, null
  br i1 %17, label %23, label %18

18:                                               ; preds = %4
  %19 = load ptr, ptr %6, align 8, !tbaa !3
  %20 = getelementptr inbounds nuw %struct.mi_heap_s, ptr %19, i32 0, i32 8
  %21 = load i64, ptr %20, align 8, !tbaa !36
  %22 = icmp eq i64 %21, 0
  br i1 %22, label %23, label %24

23:                                               ; preds = %18, %4
  store i1 false, ptr %5, align 1
  br label %70

24:                                               ; preds = %18
  call void @llvm.lifetime.start.p0(i64 8, ptr %10) #9
  store i64 0, ptr %10, align 8, !tbaa !32
  call void @llvm.lifetime.start.p0(i64 8, ptr %11) #9
  store i64 0, ptr %11, align 8, !tbaa !32
  br label %25

25:                                               ; preds = %63, %24
  %26 = load i64, ptr %11, align 8, !tbaa !32
  %27 = icmp ule i64 %26, 74
  br i1 %27, label %29, label %28

28:                                               ; preds = %25
  store i32 2, ptr %12, align 4
  br label %66

29:                                               ; preds = %25
  call void @llvm.lifetime.start.p0(i64 8, ptr %13) #9
  %30 = load ptr, ptr %6, align 8, !tbaa !3
  %31 = getelementptr inbounds nuw %struct.mi_heap_s, ptr %30, i32 0, i32 2
  %32 = load i64, ptr %11, align 8, !tbaa !32
  %33 = getelementptr inbounds nuw [75 x %struct.mi_page_queue_s], ptr %31, i64 0, i64 %32
  store ptr %33, ptr %13, align 8, !tbaa !37
  call void @llvm.lifetime.start.p0(i64 8, ptr %14) #9
  %34 = load ptr, ptr %13, align 8, !tbaa !37
  %35 = getelementptr inbounds nuw %struct.mi_page_queue_s, ptr %34, i32 0, i32 0
  %36 = load ptr, ptr %35, align 8, !tbaa !39
  store ptr %36, ptr %14, align 8, !tbaa !42
  br label %37

37:                                               ; preds = %58, %29
  %38 = load ptr, ptr %14, align 8, !tbaa !42
  %39 = icmp ne ptr %38, null
  br i1 %39, label %40, label %59

40:                                               ; preds = %37
  call void @llvm.lifetime.start.p0(i64 8, ptr %15) #9
  %41 = load ptr, ptr %14, align 8, !tbaa !42
  %42 = getelementptr inbounds nuw %struct.mi_page_s, ptr %41, i32 0, i32 13
  %43 = load ptr, ptr %42, align 8, !tbaa !43
  store ptr %43, ptr %15, align 8, !tbaa !42
  %44 = load i64, ptr %10, align 8, !tbaa !32
  %45 = add i64 %44, 1
  store i64 %45, ptr %10, align 8, !tbaa !32
  %46 = load ptr, ptr %7, align 8, !tbaa !35
  %47 = load ptr, ptr %6, align 8, !tbaa !3
  %48 = load ptr, ptr %13, align 8, !tbaa !37
  %49 = load ptr, ptr %14, align 8, !tbaa !42
  %50 = load ptr, ptr %8, align 8, !tbaa !35
  %51 = load ptr, ptr %9, align 8, !tbaa !35
  %52 = call zeroext i1 %46(ptr noundef %47, ptr noundef %48, ptr noundef %49, ptr noundef %50, ptr noundef %51)
  br i1 %52, label %54, label %53

53:                                               ; preds = %40
  store i1 false, ptr %5, align 1
  store i32 1, ptr %12, align 4
  br label %56

54:                                               ; preds = %40
  %55 = load ptr, ptr %15, align 8, !tbaa !42
  store ptr %55, ptr %14, align 8, !tbaa !42
  store i32 0, ptr %12, align 4
  br label %56

56:                                               ; preds = %54, %53
  call void @llvm.lifetime.end.p0(i64 8, ptr %15) #9
  %57 = load i32, ptr %12, align 4
  switch i32 %57, label %60 [
    i32 0, label %58
  ]

58:                                               ; preds = %56
  br label %37, !llvm.loop !47

59:                                               ; preds = %37
  store i32 0, ptr %12, align 4
  br label %60

60:                                               ; preds = %59, %56
  call void @llvm.lifetime.end.p0(i64 8, ptr %14) #9
  call void @llvm.lifetime.end.p0(i64 8, ptr %13) #9
  %61 = load i32, ptr %12, align 4
  switch i32 %61, label %66 [
    i32 0, label %62
  ]

62:                                               ; preds = %60
  br label %63

63:                                               ; preds = %62
  %64 = load i64, ptr %11, align 8, !tbaa !32
  %65 = add i64 %64, 1
  store i64 %65, ptr %11, align 8, !tbaa !32
  br label %25, !llvm.loop !49

66:                                               ; preds = %60, %28
  call void @llvm.lifetime.end.p0(i64 8, ptr %11) #9
  %67 = load i32, ptr %12, align 4
  switch i32 %67, label %69 [
    i32 2, label %68
  ]

68:                                               ; preds = %66
  store i1 true, ptr %5, align 1
  store i32 1, ptr %12, align 4
  br label %69

69:                                               ; preds = %68, %66
  call void @llvm.lifetime.end.p0(i64 8, ptr %10) #9
  br label %70

70:                                               ; preds = %69, %23
  %71 = load i1, ptr %5, align 1
  ret i1 %71
}

; Function Attrs: inlinehint nounwind uwtable
define internal zeroext i1 @mi_heap_is_backing(ptr noundef %0) #1 {
  %2 = alloca ptr, align 8
  store ptr %0, ptr %2, align 8, !tbaa !3
  %3 = load ptr, ptr %2, align 8, !tbaa !3
  %4 = getelementptr inbounds nuw %struct.mi_heap_s, ptr %3, i32 0, i32 0
  %5 = load ptr, ptr %4, align 8, !tbaa !19
  %6 = getelementptr inbounds nuw %struct.mi_tld_s, ptr %5, i32 0, i32 2
  %7 = load ptr, ptr %6, align 8, !tbaa !20
  %8 = load ptr, ptr %2, align 8, !tbaa !3
  %9 = icmp eq ptr %7, %8
  ret i1 %9
}

; Function Attrs: inlinehint nounwind uwtable
define internal zeroext i1 @mi_heap_is_initialized(ptr noundef %0) #1 {
  %2 = alloca ptr, align 8
  store ptr %0, ptr %2, align 8, !tbaa !3
  %3 = load ptr, ptr %2, align 8, !tbaa !3
  %4 = icmp ne ptr %3, @_mi_heap_empty
  ret i1 %4
}

; Function Attrs: nounwind uwtable
define internal void @mi_heap_collect_ex(ptr noundef %0, i32 noundef %1) #0 {
  %3 = alloca ptr, align 8
  %4 = alloca i32, align 4
  %5 = alloca i8, align 1
  %6 = alloca i8, align 1
  store ptr %0, ptr %3, align 8, !tbaa !3
  store i32 %1, ptr %4, align 4, !tbaa !8
  %7 = load ptr, ptr %3, align 8, !tbaa !3
  %8 = icmp eq ptr %7, null
  br i1 %8, label %12, label %9

9:                                                ; preds = %2
  %10 = load ptr, ptr %3, align 8, !tbaa !3
  %11 = call zeroext i1 @mi_heap_is_initialized(ptr noundef %10)
  br i1 %11, label %13, label %12

12:                                               ; preds = %9, %2
  br label %87

13:                                               ; preds = %9
  call void @llvm.lifetime.start.p0(i64 1, ptr %5) #9
  %14 = load i32, ptr %4, align 4, !tbaa !8
  %15 = icmp uge i32 %14, 1
  %16 = zext i1 %15 to i8
  store i8 %16, ptr %5, align 1, !tbaa !10
  %17 = load ptr, ptr %3, align 8, !tbaa !3
  %18 = load i8, ptr %5, align 1, !tbaa !10, !range !12, !noundef !13
  %19 = trunc i8 %18 to i1
  call void @_mi_deferred_free(ptr noundef %17, i1 noundef zeroext %19)
  call void @llvm.lifetime.start.p0(i64 1, ptr %6) #9
  %20 = load i32, ptr %4, align 4, !tbaa !8
  %21 = icmp eq i32 %20, 1
  br i1 %21, label %22, label %33

22:                                               ; preds = %13
  %23 = call zeroext i1 @_mi_is_main_thread()
  br i1 %23, label %24, label %33

24:                                               ; preds = %22
  %25 = load ptr, ptr %3, align 8, !tbaa !3
  %26 = call zeroext i1 @mi_heap_is_backing(ptr noundef %25)
  br i1 %26, label %27, label %33

27:                                               ; preds = %24
  %28 = load ptr, ptr %3, align 8, !tbaa !3
  %29 = getelementptr inbounds nuw %struct.mi_heap_s, ptr %28, i32 0, i32 12
  %30 = load i8, ptr %29, align 8, !tbaa !14, !range !12, !noundef !13
  %31 = trunc i8 %30 to i1
  %32 = xor i1 %31, true
  br label %33

33:                                               ; preds = %27, %24, %22, %13
  %34 = phi i1 [ false, %24 ], [ false, %22 ], [ false, %13 ], [ %32, %27 ]
  %35 = zext i1 %34 to i8
  store i8 %35, ptr %6, align 1, !tbaa !10
  %36 = load i8, ptr %6, align 1, !tbaa !10, !range !12, !noundef !13
  %37 = trunc i8 %36 to i1
  br i1 %37, label %38, label %44

38:                                               ; preds = %33
  %39 = load ptr, ptr %3, align 8, !tbaa !3
  %40 = load ptr, ptr %3, align 8, !tbaa !3
  %41 = getelementptr inbounds nuw %struct.mi_heap_s, ptr %40, i32 0, i32 0
  %42 = load ptr, ptr %41, align 8, !tbaa !19
  %43 = getelementptr inbounds nuw %struct.mi_tld_s, ptr %42, i32 0, i32 4
  call void @_mi_abandoned_reclaim_all(ptr noundef %39, ptr noundef %43)
  br label %44

44:                                               ; preds = %38, %33
  %45 = load i32, ptr %4, align 4, !tbaa !8
  %46 = icmp eq i32 %45, 2
  br i1 %46, label %47, label %50

47:                                               ; preds = %44
  %48 = load ptr, ptr %3, align 8, !tbaa !3
  %49 = call zeroext i1 @mi_heap_visit_pages(ptr noundef %48, ptr noundef @mi_heap_page_never_delayed_free, ptr noundef null, ptr noundef null)
  br label %50

50:                                               ; preds = %47, %44
  %51 = load ptr, ptr %3, align 8, !tbaa !3
  call void @_mi_heap_delayed_free(ptr noundef %51)
  %52 = load ptr, ptr %3, align 8, !tbaa !3
  %53 = load i8, ptr %5, align 1, !tbaa !10, !range !12, !noundef !13
  %54 = trunc i8 %53 to i1
  call void @_mi_heap_collect_retired(ptr noundef %52, i1 noundef zeroext %54)
  %55 = load ptr, ptr %3, align 8, !tbaa !3
  %56 = call zeroext i1 @mi_heap_visit_pages(ptr noundef %55, ptr noundef @mi_heap_page_collect, ptr noundef %4, ptr noundef null)
  %57 = load ptr, ptr %3, align 8, !tbaa !3
  %58 = load i32, ptr %4, align 4, !tbaa !8
  %59 = icmp eq i32 %58, 1
  %60 = load ptr, ptr %3, align 8, !tbaa !3
  %61 = getelementptr inbounds nuw %struct.mi_heap_s, ptr %60, i32 0, i32 0
  %62 = load ptr, ptr %61, align 8, !tbaa !19
  %63 = getelementptr inbounds nuw %struct.mi_tld_s, ptr %62, i32 0, i32 4
  call void @_mi_abandoned_collect(ptr noundef %57, i1 noundef zeroext %59, ptr noundef %63)
  %64 = load i8, ptr %5, align 1, !tbaa !10, !range !12, !noundef !13
  %65 = trunc i8 %64 to i1
  br i1 %65, label %66, label %71

66:                                               ; preds = %50
  %67 = load ptr, ptr %3, align 8, !tbaa !3
  %68 = getelementptr inbounds nuw %struct.mi_heap_s, ptr %67, i32 0, i32 0
  %69 = load ptr, ptr %68, align 8, !tbaa !19
  %70 = getelementptr inbounds nuw %struct.mi_tld_s, ptr %69, i32 0, i32 4
  call void @_mi_segment_thread_collect(ptr noundef %70)
  br label %71

71:                                               ; preds = %66, %50
  %72 = load i32, ptr %4, align 4, !tbaa !8
  %73 = icmp eq i32 %72, 1
  %74 = load ptr, ptr %3, align 8, !tbaa !3
  %75 = getelementptr inbounds nuw %struct.mi_heap_s, ptr %74, i32 0, i32 0
  %76 = load ptr, ptr %75, align 8, !tbaa !19
  %77 = getelementptr inbounds nuw %struct.mi_tld_s, ptr %76, i32 0, i32 5
  call void @_mi_segment_cache_collect(i1 noundef zeroext %73, ptr noundef %77)
  %78 = load i8, ptr %5, align 1, !tbaa !10, !range !12, !noundef !13
  %79 = trunc i8 %78 to i1
  br i1 %79, label %80, label %86

80:                                               ; preds = %71
  %81 = call zeroext i1 @_mi_is_main_thread()
  br i1 %81, label %82, label %86

82:                                               ; preds = %80
  %83 = load ptr, ptr %3, align 8, !tbaa !3
  %84 = call zeroext i1 @mi_heap_is_backing(ptr noundef %83)
  br i1 %84, label %85, label %86

85:                                               ; preds = %82
  br label %86

86:                                               ; preds = %85, %82, %80, %71
  call void @llvm.lifetime.end.p0(i64 1, ptr %6) #9
  call void @llvm.lifetime.end.p0(i64 1, ptr %5) #9
  br label %87

87:                                               ; preds = %86, %12
  ret void
}