; Function Attrs: nounwind uwtable
define internal fastcc void @mi_heap_collect_ex(ptr noundef %0, i32 noundef range(i32 0, 3) %1) unnamed_addr #0 {
  %3 = icmp ne ptr %0, null
  %4 = icmp ne ptr %0, @_mi_heap_empty
  %or.cond = and i1 %3, %4
  br i1 %or.cond, label %5, label %64

5:                                                ; preds = %2
  %6 = icmp ne i32 %1, 0
  tail call void @_mi_deferred_free(ptr noundef nonnull %0, i1 noundef zeroext %6) #8
  %7 = icmp eq i32 %1, 1
  br i1 %7, label %8, label %.critedge

8:                                                ; preds = %5
  %9 = tail call zeroext i1 @_mi_is_main_thread() #8
  br i1 %9, label %10, label %.critedge.thread

10:                                               ; preds = %8
  %11 = load ptr, ptr %0, align 8, !tbaa !3
  %12 = getelementptr inbounds nuw i8, ptr %11, i64 16
  %13 = load ptr, ptr %12, align 8, !tbaa !14
  %14 = icmp eq ptr %13, %0
  br i1 %14, label %15, label %.critedge.thread

15:                                               ; preds = %10
  %16 = getelementptr inbounds nuw i8, ptr %0, i64 3048
  %17 = load i8, ptr %16, align 8, !tbaa !24, !range !25, !noundef !26
  %18 = trunc nuw i8 %17 to i1
  br i1 %18, label %.critedge.thread, label %19

19:                                               ; preds = %15
  %20 = getelementptr inbounds nuw i8, ptr %11, i64 32
  tail call void @_mi_abandoned_reclaim_all(ptr noundef nonnull %0, ptr noundef nonnull %20) #8
  br label %.critedge.thread

.critedge:                                        ; preds = %5
  %21 = icmp eq i32 %1, 2
  br i1 %21, label %22, label %.critedge.thread

22:                                               ; preds = %.critedge
  %23 = getelementptr inbounds nuw i8, ptr %0, i64 3016
  %24 = load i64, ptr %23, align 8, !tbaa !27
  %25 = icmp eq i64 %24, 0
  br i1 %25, label %.critedge.thread, label %.preheader.i

.preheader.i:                                     ; preds = %22
  %26 = getelementptr inbounds nuw i8, ptr %0, i64 1040
  br label %27

27:                                               ; preds = %._crit_edge, %.preheader.i
  %.03036.i = phi i64 [ 0, %.preheader.i ], [ %32, %._crit_edge ]
  %28 = getelementptr inbounds nuw [75 x %struct.mi_page_queue_s], ptr %26, i64 0, i64 %.03036.i
  %29 = load ptr, ptr %28, align 8, !tbaa !28
  %.not.i35 = icmp eq ptr %29, null
  br i1 %.not.i35, label %._crit_edge, label %.lr.ph

.lr.ph:                                           ; preds = %27, %.lr.ph
  %.022.i36 = phi ptr [ %31, %.lr.ph ], [ %29, %27 ]
  %30 = getelementptr inbounds nuw i8, ptr %.022.i36, i64 56
  %31 = load ptr, ptr %30, align 8, !tbaa !31
  tail call void @_mi_page_use_delayed_free(ptr noundef nonnull %.022.i36, i32 noundef 3, i1 noundef zeroext false) #8
  %.not.i = icmp eq ptr %31, null
  br i1 %.not.i, label %._crit_edge, label %.lr.ph, !llvm.loop !35

._crit_edge:                                      ; preds = %.lr.ph, %27
  %32 = add nuw nsw i64 %.03036.i, 1
  %exitcond.i = icmp eq i64 %32, 75
  br i1 %exitcond.i, label %.critedge.thread, label %27, !llvm.loop !37

.critedge.thread:                                 ; preds = %._crit_edge, %15, %19, %8, %10, %.critedge, %22
  %33 = phi i1 [ false, %.critedge ], [ true, %22 ], [ false, %10 ], [ false, %8 ], [ false, %19 ], [ false, %15 ], [ true, %._crit_edge ]
  tail call void @_mi_heap_delayed_free(ptr noundef nonnull %0) #8
  tail call void @_mi_heap_collect_retired(ptr noundef nonnull %0, i1 noundef zeroext %6) #8
  %34 = getelementptr inbounds nuw i8, ptr %0, i64 3016
  %35 = load i64, ptr %34, align 8, !tbaa !27
  %36 = icmp eq i64 %35, 0
  br i1 %36, label %mi_heap_visit_pages.exit28, label %.preheader.i22

.preheader.i22:                                   ; preds = %.critedge.thread
  %37 = getelementptr inbounds nuw i8, ptr %0, i64 1040
  br i1 %33, label %.preheader.i22.split.us, label %.preheader.i22.split

.preheader.i22.split.us:                          ; preds = %.preheader.i22, %._crit_edge41.split.us.us
  %.03036.i23.us = phi i64 [ %40, %._crit_edge41.split.us.us ], [ 0, %.preheader.i22 ]
  %38 = getelementptr inbounds nuw [75 x %struct.mi_page_queue_s], ptr %37, i64 0, i64 %.03036.i23.us
  %39 = load ptr, ptr %38, align 8, !tbaa !28
  %.not.i2537.us = icmp eq ptr %39, null
  br i1 %.not.i2537.us, label %._crit_edge41.split.us.us, label %.lr.ph40.us

._crit_edge41.split.us.us:                        ; preds = %mi_heap_page_collect.exit.us.us, %.preheader.i22.split.us
  %40 = add nuw nsw i64 %.03036.i23.us, 1
  %exitcond.i27.us = icmp eq i64 %40, 75
  br i1 %exitcond.i27.us, label %mi_heap_visit_pages.exit28, label %.preheader.i22.split.us, !llvm.loop !37

.lr.ph40.us:                                      ; preds = %.preheader.i22.split.us, %mi_heap_page_collect.exit.us.us
  %.022.i2438.us.us = phi ptr [ %42, %mi_heap_page_collect.exit.us.us ], [ %39, %.preheader.i22.split.us ]
  %41 = getelementptr inbounds nuw i8, ptr %.022.i2438.us.us, i64 56
  %42 = load ptr, ptr %41, align 8, !tbaa !31
  tail call void @_mi_page_free_collect(ptr noundef nonnull %.022.i2438.us.us, i1 noundef zeroext %6) #8
  %43 = getelementptr i8, ptr %.022.i2438.us.us, i64 24
  %.val.i.us.us = load i32, ptr %43, align 8, !tbaa !38
  %44 = icmp eq i32 %.val.i.us.us, 0
  br i1 %44, label %46, label %45

45:                                               ; preds = %.lr.ph40.us
  tail call void @_mi_page_abandon(ptr noundef nonnull %.022.i2438.us.us, ptr noundef nonnull %38) #8
  br label %mi_heap_page_collect.exit.us.us

46:                                               ; preds = %.lr.ph40.us
  tail call void @_mi_page_free(ptr noundef nonnull %.022.i2438.us.us, ptr noundef nonnull %38, i1 noundef zeroext %6) #8
  br label %mi_heap_page_collect.exit.us.us

mi_heap_page_collect.exit.us.us:                  ; preds = %46, %45
  %.not.i25.us.us = icmp eq ptr %42, null
  br i1 %.not.i25.us.us, label %._crit_edge41.split.us.us, label %.lr.ph40.us, !llvm.loop !35

.preheader.i22.split:                             ; preds = %.preheader.i22, %._crit_edge41.split
  %.03036.i23 = phi i64 [ %54, %._crit_edge41.split ], [ 0, %.preheader.i22 ]
  %47 = getelementptr inbounds nuw [75 x %struct.mi_page_queue_s], ptr %37, i64 0, i64 %.03036.i23
  %48 = load ptr, ptr %47, align 8, !tbaa !28
  %.not.i2537 = icmp eq ptr %48, null
  br i1 %.not.i2537, label %._crit_edge41.split, label %.lr.ph40

.lr.ph40:                                         ; preds = %.preheader.i22.split, %mi_heap_page_collect.exit
  %.022.i2438 = phi ptr [ %50, %mi_heap_page_collect.exit ], [ %48, %.preheader.i22.split ]
  %49 = getelementptr inbounds nuw i8, ptr %.022.i2438, i64 56
  %50 = load ptr, ptr %49, align 8, !tbaa !31
  tail call void @_mi_page_free_collect(ptr noundef nonnull %.022.i2438, i1 noundef zeroext %6) #8
  %51 = getelementptr i8, ptr %.022.i2438, i64 24
  %.val.i = load i32, ptr %51, align 8, !tbaa !38
  %52 = icmp eq i32 %.val.i, 0
  br i1 %52, label %53, label %mi_heap_page_collect.exit

53:                                               ; preds = %.lr.ph40
  tail call void @_mi_page_free(ptr noundef nonnull %.022.i2438, ptr noundef nonnull %47, i1 noundef zeroext %6) #8
  br label %mi_heap_page_collect.exit

mi_heap_page_collect.exit:                        ; preds = %.lr.ph40, %53
  %.not.i25 = icmp eq ptr %50, null
  br i1 %.not.i25, label %._crit_edge41.split, label %.lr.ph40, !llvm.loop !35

._crit_edge41.split:                              ; preds = %mi_heap_page_collect.exit, %.preheader.i22.split
  %54 = add nuw nsw i64 %.03036.i23, 1
  %exitcond.i27 = icmp eq i64 %54, 75
  br i1 %exitcond.i27, label %mi_heap_visit_pages.exit28, label %.preheader.i22.split, !llvm.loop !37

mi_heap_visit_pages.exit28:                       ; preds = %._crit_edge41.split, %._crit_edge41.split.us.us, %.critedge.thread
  %55 = load ptr, ptr %0, align 8, !tbaa !3
  %56 = getelementptr inbounds nuw i8, ptr %55, i64 32
  tail call void @_mi_abandoned_collect(ptr noundef nonnull %0, i1 noundef zeroext %7, ptr noundef nonnull %56) #8
  %57 = load ptr, ptr %0, align 8, !tbaa !3
  br i1 %6, label %58, label %.critedge21

58:                                               ; preds = %mi_heap_visit_pages.exit28
  %59 = getelementptr inbounds nuw i8, ptr %57, i64 32
  tail call void @_mi_segment_thread_collect(ptr noundef nonnull %59) #8
  %60 = load ptr, ptr %0, align 8, !tbaa !3
  %61 = getelementptr inbounds nuw i8, ptr %60, i64 944
  tail call void @_mi_segment_cache_collect(i1 noundef zeroext %7, ptr noundef nonnull %61) #8
  %62 = tail call zeroext i1 @_mi_is_main_thread() #8
  br label %64

.critedge21:                                      ; preds = %mi_heap_visit_pages.exit28
  %63 = getelementptr inbounds nuw i8, ptr %57, i64 944
  tail call void @_mi_segment_cache_collect(i1 noundef zeroext false, ptr noundef nonnull %63) #8
  br label %64

64:                                               ; preds = %58, %.critedge21, %2
  ret void
}